target datalayout = "e-m:e-p270:32:32-p271:32:32-p272:64:64-i64:64-i128:128-f80:128-n8:16:32:64-S128"
target triple = "x86_64-pc-linux-gnu"

%struct.mbedtls_ecp_group = type { i32, %struct.mbedtls_mpi, %struct.mbedtls_mpi, %struct.mbedtls_mpi, %struct.mbedtls_ecp_point, %struct.mbedtls_mpi, i64, i64, i32, ptr, ptr, ptr, ptr, ptr, i64 }
%struct.mbedtls_ecp_point = type { %struct.mbedtls_mpi, %struct.mbedtls_mpi, %struct.mbedtls_mpi }
%struct.mbedtls_mpi = type { ptr, i16, i16 }

; Function Attrs: inlinehint nounwind uwtable
define internal zeroext i8 @mbedtls_md_get_size_from_type(i32 noundef %0) #3 {
  %2 = alloca i32, align 4
  store i32 %0, ptr %2, align 4, !tbaa !19
  %3 = load i32, ptr %2, align 4, !tbaa !19
  %4 = call ptr @mbedtls_md_info_from_type(i32 noundef %3)
  %5 = call zeroext i8 @mbedtls_md_get_size(ptr noundef %4)
  ret i8 %5
}

; Function Attrs: nounwind uwtable
define internal i32 @mbedtls_ecjpake_compute_hash(i32 noundef %0, ptr noundef %1, i64 noundef %2, ptr noundef %3) #0 {
  %5 = alloca i32, align 4
  %6 = alloca ptr, align 8
  %7 = alloca i64, align 8
  %8 = alloca ptr, align 8
  store i32 %0, ptr %5, align 4, !tbaa !19
  store ptr %1, ptr %6, align 8, !tbaa !20
  store i64 %2, ptr %7, align 8, !tbaa !22
  store ptr %3, ptr %8, align 8, !tbaa !20
  %9 = load i32, ptr %5, align 4, !tbaa !19
  %10 = call ptr @mbedtls_md_info_from_type(i32 noundef %9)
  %11 = load ptr, ptr %6, align 8, !tbaa !20
  %12 = load i64, ptr %7, align 8, !tbaa !22
  %13 = load ptr, ptr %8, align 8, !tbaa !20
  %14 = call i32 @mbedtls_md(ptr noundef %10, ptr noundef %11, i64 noundef %12, ptr noundef %13)
  ret i32 %14
}

; Function Attrs: alwaysinline nounwind uwtable
define internal void @mbedtls_put_unaligned_uint32(ptr noundef %0, i32 noundef %1) #6 {
  %3 = alloca ptr, align 8
  %4 = alloca i32, align 4
  store ptr %0, ptr %3, align 8, !tbaa !30
  store i32 %1, ptr %4, align 4, !tbaa !19
  %5 = load ptr, ptr %3, align 8, !tbaa !30
  call void @llvm.memcpy.p0.p0.i64(ptr align 1 %5, ptr align 4 %4, i64 4, i1 false)
  ret void
}

; Function Attrs: nounwind uwtable
define internal i32 @ecjpake_write_len_point(ptr noundef %0, ptr noundef %1, ptr noundef %2, i32 noundef %3, ptr noundef %4) #0 {
  %6 = alloca i32, align 4
  %7 = alloca ptr, align 8
  %8 = alloca ptr, align 8
  %9 = alloca ptr, align 8
  %10 = alloca i32, align 4
  %11 = alloca ptr, align 8
  %12 = alloca i32, align 4
  %13 = alloca i64, align 8
  %14 = alloca i32, align 4
  store ptr %0, ptr %7, align 8, !tbaa !34
  store ptr %1, ptr %8, align 8, !tbaa !20
  store ptr %2, ptr %9, align 8, !tbaa !26
  store i32 %3, ptr %10, align 4, !tbaa !19
  store ptr %4, ptr %11, align 8, !tbaa !28
  call void @llvm.lifetime.start.p0(i64 4, ptr %12) #9
  store i32 -110, ptr %12, align 4, !tbaa !19
  call void @llvm.lifetime.start.p0(i64 8, ptr %13) #9
  %15 = load ptr, ptr %8, align 8, !tbaa !20
  %16 = load ptr, ptr %7, align 8, !tbaa !34
  %17 = load ptr, ptr %16, align 8, !tbaa !20
  %18 = icmp ult ptr %15, %17
  br i1 %18, label %27, label %19

19:                                               ; preds = %5
  %20 = load ptr, ptr %8, align 8, !tbaa !20
  %21 = load ptr, ptr %7, align 8, !tbaa !34
  %22 = load ptr, ptr %21, align 8, !tbaa !20
  %23 = ptrtoint ptr %20 to i64
  %24 = ptrtoint ptr %22 to i64
  %25 = sub i64 %23, %24
  %26 = icmp slt i64 %25, 5
  br i1 %26, label %27, label %28

27:                                               ; preds = %19, %5
  store i32 -20224, ptr %6, align 4
  store i32 1, ptr %14, align 4
  br label %59

28:                                               ; preds = %19
  %29 = load ptr, ptr %9, align 8, !tbaa !26
  %30 = load ptr, ptr %11, align 8, !tbaa !28
  %31 = load i32, ptr %10, align 4, !tbaa !19
  %32 = load ptr, ptr %7, align 8, !tbaa !34
  %33 = load ptr, ptr %32, align 8, !tbaa !20
  %34 = getelementptr inbounds i8, ptr %33, i64 4
  %35 = load ptr, ptr %8, align 8, !tbaa !20
  %36 = load ptr, ptr %7, align 8, !tbaa !34
  %37 = load ptr, ptr %36, align 8, !tbaa !20
  %38 = getelementptr inbounds i8, ptr %37, i64 4
  %39 = ptrtoint ptr %35 to i64
  %40 = ptrtoint ptr %38 to i64
  %41 = sub i64 %39, %40
  %42 = call i32 @mbedtls_ecp_point_write_binary(ptr noundef %29, ptr noundef %30, i32 noundef %31, ptr noundef %13, ptr noundef %34, i64 noundef %41)
  store i32 %42, ptr %12, align 4, !tbaa !19
  %43 = load i32, ptr %12, align 4, !tbaa !19
  %44 = icmp ne i32 %43, 0
  br i1 %44, label %45, label %47

45:                                               ; preds = %28
  %46 = load i32, ptr %12, align 4, !tbaa !19
  store i32 %46, ptr %6, align 4
  store i32 1, ptr %14, align 4
  br label %59

47:                                               ; preds = %28
  %48 = load ptr, ptr %7, align 8, !tbaa !34
  %49 = load ptr, ptr %48, align 8, !tbaa !20
  %50 = getelementptr inbounds i8, ptr %49, i64 0
  %51 = load i64, ptr %13, align 8, !tbaa !22
  %52 = trunc i64 %51 to i32
  %53 = call i32 @llvm.bswap.i32(i32 %52)
  call void @mbedtls_put_unaligned_uint32(ptr noundef %50, i32 noundef %53)
  %54 = load i64, ptr %13, align 8, !tbaa !22
  %55 = add i64 4, %54
  %56 = load ptr, ptr %7, align 8, !tbaa !34
  %57 = load ptr, ptr %56, align 8, !tbaa !20
  %58 = getelementptr inbounds nuw i8, ptr %57, i64 %55
  store ptr %58, ptr %56, align 8, !tbaa !20
  store i32 0, ptr %6, align 4
  store i32 1, ptr %14, align 4
  br label %59

59:                                               ; preds = %47, %45, %27
  call void @llvm.lifetime.end.p0(i64 8, ptr %13) #9
  call void @llvm.lifetime.end.p0(i64 4, ptr %12) #9
  %60 = load i32, ptr %6, align 4
  ret i32 %60
}

; Function Attrs: nounwind uwtable
define internal i32 @ecjpake_hash(i32 noundef %0, ptr noundef %1, i32 noundef %2, ptr noundef %3, ptr noundef %4, ptr noundef %5, ptr noundef %6, ptr noundef %7) #0 {
  %9 = alloca i32, align 4
  %10 = alloca i32, align 4
  %11 = alloca ptr, align 8
  %12 = alloca i32, align 4
  %13 = alloca ptr, align 8
  %14 = alloca ptr, align 8
  %15 = alloca ptr, align 8
  %16 = alloca ptr, align 8
  %17 = alloca ptr, align 8
  %18 = alloca i32, align 4
  %19 = alloca [421 x i8], align 16
  %20 = alloca ptr, align 8
  %21 = alloca ptr, align 8
  %22 = alloca i64, align 8
  %23 = alloca [64 x i8], align 16
  %24 = alloca i32, align 4
  store i32 %0, ptr %10, align 4, !tbaa !19
  store ptr %1, ptr %11, align 8, !tbaa !26
  store i32 %2, ptr %12, align 4, !tbaa !19
  store ptr %3, ptr %13, align 8, !tbaa !28
  store ptr %4, ptr %14, align 8, !tbaa !28
  store ptr %5, ptr %15, align 8, !tbaa !28
  store ptr %6, ptr %16, align 8, !tbaa !20
  store ptr %7, ptr %17, align 8, !tbaa !31
  call void @llvm.lifetime.start.p0(i64 4, ptr %18) #9
  store i32 -110, ptr %18, align 4, !tbaa !19
  call void @llvm.lifetime.start.p0(i64 421, ptr %19) #9
  call void @llvm.lifetime.start.p0(i64 8, ptr %20) #9
  %25 = getelementptr inbounds [421 x i8], ptr %19, i64 0, i64 0
  store ptr %25, ptr %20, align 8, !tbaa !20
  call void @llvm.lifetime.start.p0(i64 8, ptr %21) #9
  %26 = getelementptr inbounds [421 x i8], ptr %19, i64 0, i64 0
  %27 = getelementptr inbounds nuw i8, ptr %26, i64 421
  store ptr %27, ptr %21, align 8, !tbaa !20
  call void @llvm.lifetime.start.p0(i64 8, ptr %22) #9
  %28 = load ptr, ptr %16, align 8, !tbaa !20
  %29 = call i64 @strlen(ptr noundef %28) #10
  store i64 %29, ptr %22, align 8, !tbaa !22
  call void @llvm.lifetime.start.p0(i64 64, ptr %23) #9
  br label %30

30:                                               ; preds = %8
  %31 = load ptr, ptr %21, align 8, !tbaa !20
  %32 = load ptr, ptr %11, align 8, !tbaa !26
  %33 = load i32, ptr %12, align 4, !tbaa !19
  %34 = load ptr, ptr %13, align 8, !tbaa !28
  %35 = call i32 @ecjpake_write_len_point(ptr noundef %20, ptr noundef %31, ptr noundef %32, i32 noundef %33, ptr noundef %34)
  store i32 %35, ptr %18, align 4, !tbaa !19
  %36 = icmp ne i32 %35, 0
  br i1 %36, label %37, label %38

37:                                               ; preds = %30
  br label %135

38:                                               ; preds = %30
  br label %39

39:                                               ; preds = %38
  br label %40

40:                                               ; preds = %39
  br label %41

41:                                               ; preds = %40
  %42 = load ptr, ptr %21, align 8, !tbaa !20
  %43 = load ptr, ptr %11, align 8, !tbaa !26
  %44 = load i32, ptr %12, align 4, !tbaa !19
  %45 = load ptr, ptr %14, align 8, !tbaa !28
  %46 = call i32 @ecjpake_write_len_point(ptr noundef %20, ptr noundef %42, ptr noundef %43, i32 noundef %44, ptr noundef %45)
  store i32 %46, ptr %18, align 4, !tbaa !19
  %47 = icmp ne i32 %46, 0
  br i1 %47, label %48, label %49

48:                                               ; preds = %41
  br label %135

49:                                               ; preds = %41
  br label %50

50:                                               ; preds = %49
  br label %51

51:                                               ; preds = %50
  br label %52

52:                                               ; preds = %51
  %53 = load ptr, ptr %21, align 8, !tbaa !20
  %54 = load ptr, ptr %11, align 8, !tbaa !26
  %55 = load i32, ptr %12, align 4, !tbaa !19
  %56 = load ptr, ptr %15, align 8, !tbaa !28
  %57 = call i32 @ecjpake_write_len_point(ptr noundef %20, ptr noundef %53, ptr noundef %54, i32 noundef %55, ptr noundef %56)
  store i32 %57, ptr %18, align 4, !tbaa !19
  %58 = icmp ne i32 %57, 0
  br i1 %58, label %59, label %60

59:                                               ; preds = %52
  br label %135

60:                                               ; preds = %52
  br label %61

61:                                               ; preds = %60
  br label %62

62:                                               ; preds = %61
  %63 = load ptr, ptr %21, align 8, !tbaa !20
  %64 = load ptr, ptr %20, align 8, !tbaa !20
  %65 = ptrtoint ptr %63 to i64
  %66 = ptrtoint ptr %64 to i64
  %67 = sub i64 %65, %66
  %68 = icmp slt i64 %67, 4
  br i1 %68, label %69, label %70

69:                                               ; preds = %62
  store i32 -20224, ptr %9, align 4
  store i32 1, ptr %24, align 4
  br label %137

70:                                               ; preds = %62
  %71 = load ptr, ptr %20, align 8, !tbaa !20
  %72 = getelementptr inbounds i8, ptr %71, i64 0
  %73 = load i64, ptr %22, align 8, !tbaa !22
  %74 = trunc i64 %73 to i32
  %75 = call i32 @llvm.bswap.i32(i32 %74)
  call void @mbedtls_put_unaligned_uint32(ptr noundef %72, i32 noundef %75)
  %76 = load ptr, ptr %20, align 8, !tbaa !20
  %77 = getelementptr inbounds i8, ptr %76, i64 4
  store ptr %77, ptr %20, align 8, !tbaa !20
  %78 = load ptr, ptr %21, align 8, !tbaa !20
  %79 = load ptr, ptr %20, align 8, !tbaa !20
  %80 = icmp ult ptr %78, %79
  br i1 %80, label %89, label %81

81:                                               ; preds = %70
  %82 = load ptr, ptr %21, align 8, !tbaa !20
  %83 = load ptr, ptr %20, align 8, !tbaa !20
  %84 = ptrtoint ptr %82 to i64
  %85 = ptrtoint ptr %83 to i64
  %86 = sub i64 %84, %85
  %87 = load i64, ptr %22, align 8, !tbaa !22
  %88 = icmp ult i64 %86, %87
  br i1 %88, label %89, label %90

89:                                               ; preds = %81, %70
  store i32 -20224, ptr %9, align 4
  store i32 1, ptr %24, align 4
  br label %137

90:                                               ; preds = %81
  %91 = load ptr, ptr %20, align 8, !tbaa !20
  %92 = load ptr, ptr %16, align 8, !tbaa !20
  %93 = load i64, ptr %22, align 8, !tbaa !22
  call void @llvm.memcpy.p0.p0.i64(ptr align 1 %91, ptr align 1 %92, i64 %93, i1 false)
  %94 = load i64, ptr %22, align 8, !tbaa !22
  %95 = load ptr, ptr %20, align 8, !tbaa !20
  %96 = getelementptr inbounds nuw i8, ptr %95, i64 %94
  store ptr %96, ptr %20, align 8, !tbaa !20
  br label %97

97:                                               ; preds = %90
  %98 = load i32, ptr %10, align 4, !tbaa !19
  %99 = getelementptr inbounds [421 x i8], ptr %19, i64 0, i64 0
  %100 = load ptr, ptr %20, align 8, !tbaa !20
  %101 = getelementptr inbounds [421 x i8], ptr %19, i64 0, i64 0
  %102 = ptrtoint ptr %100 to i64
  %103 = ptrtoint ptr %101 to i64
  %104 = sub i64 %102, %103
  %105 = getelementptr inbounds [64 x i8], ptr %23, i64 0, i64 0
  %106 = call i32 @mbedtls_ecjpake_compute_hash(i32 noundef %98, ptr noundef %99, i64 noundef %104, ptr noundef %105)
  store i32 %106, ptr %18, align 4, !tbaa !19
  %107 = icmp ne i32 %106, 0
  br i1 %107, label %108, label %109

108:                                              ; preds = %97
  br label %135

109:                                              ; preds = %97
  br label %110

110:                                              ; preds = %109
  br label %111

111:                                              ; preds = %110
  br label %112

112:                                              ; preds = %111
  %113 = load ptr, ptr %17, align 8, !tbaa !31
  %114 = getelementptr inbounds [64 x i8], ptr %23, i64 0, i64 0
  %115 = load i32, ptr %10, align 4, !tbaa !19
  %116 = call zeroext i8 @mbedtls_md_get_size_from_type(i32 noundef %115)
  %117 = zext i8 %116 to i64
  %118 = call i32 @mbedtls_mpi_read_binary(ptr noundef %113, ptr noundef %114, i64 noundef %117)
  store i32 %118, ptr %18, align 4, !tbaa !19
  %119 = icmp ne i32 %118, 0
  br i1 %119, label %120, label %121

120:                                              ; preds = %112
  br label %135

121:                                              ; preds = %112
  br label %122

122:                                              ; preds = %121
  br label %123

123:                                              ; preds = %122
  br label %124

124:                                              ; preds = %123
  %125 = load ptr, ptr %17, align 8, !tbaa !31
  %126 = load ptr, ptr %17, align 8, !tbaa !31
  %127 = load ptr, ptr %11, align 8, !tbaa !26
  %128 = getelementptr inbounds nuw %struct.mbedtls_ecp_group, ptr %127, i32 0, i32 5
  %129 = call i32 @mbedtls_mpi_mod_mpi(ptr noundef %125, ptr noundef %126, ptr noundef %128)
  store i32 %129, ptr %18, align 4, !tbaa !19
  %130 = icmp ne i32 %129, 0
  br i1 %130, label %131, label %132

131:                                              ; preds = %124
  br label %135

132:                                              ; preds = %124
  br label %133

133:                                              ; preds = %132
  br label %134

134:                                              ; preds = %133
  br label %135

135:                                              ; preds = %134, %131, %120, %108, %59, %48, %37
  %136 = load i32, ptr %18, align 4, !tbaa !19
  store i32 %136, ptr %9, align 4
  store i32 1, ptr %24, align 4
  br label %137

137:                                              ; preds = %135, %89, %69
  call void @llvm.lifetime.end.p0(i64 64, ptr %23) #9
  call void @llvm.lifetime.end.p0(i64 8, ptr %22) #9
  call void @llvm.lifetime.end.p0(i64 8, ptr %21) #9
  call void @llvm.lifetime.end.p0(i64 8, ptr %20) #9
  call void @llvm.lifetime.end.p0(i64 421, ptr %19) #9
  call void @llvm.lifetime.end.p0(i64 4, ptr %18) #9
  %138 = load i32, ptr %9, align 4
  ret i32 %138
}