; Function Attrs: nounwind uwtable
define internal fastcc i32 @ecjpake_hash(i32 noundef %0, ptr noundef %1, i32 noundef %2, ptr noundef %3, ptr noundef nonnull %4, ptr noundef %5, ptr noundef readonly captures(none) %6, ptr noundef nonnull %7) unnamed_addr #0 {
  %9 = alloca i64, align 8
  %10 = alloca i64, align 8
  %11 = alloca i64, align 8
  %12 = alloca [421 x i8], align 16
  %13 = alloca [64 x i8], align 16
  call void @llvm.lifetime.start.p0(i64 421, ptr nonnull %12) #15
  %14 = getelementptr inbounds nuw i8, ptr %12, i64 421
  %15 = tail call i64 @strlen(ptr noundef nonnull dereferenceable(1) %6) #16
  call void @llvm.lifetime.start.p0(i64 64, ptr nonnull %13) #15
  call void @llvm.lifetime.start.p0(i64 8, ptr nonnull %11) #15
  %16 = getelementptr inbounds nuw i8, ptr %12, i64 4
  %17 = call i32 @mbedtls_ecp_point_write_binary(ptr noundef %1, ptr noundef %3, i32 noundef %2, ptr noundef nonnull %11, ptr noundef nonnull %16, i64 noundef 417) #15
  %.not.i = icmp eq i32 %17, 0
  br i1 %.not.i, label %18, label %ecjpake_write_len_point.exit

ecjpake_write_len_point.exit:                     ; preds = %8
  call void @llvm.lifetime.end.p0(i64 8, ptr nonnull %11) #15
  br label %82

18:                                               ; preds = %8
  %19 = load i64, ptr %11, align 8, !tbaa !22
  %20 = trunc i64 %19 to i32
  %21 = call i32 @llvm.bswap.i32(i32 %20)
  store i32 %21, ptr %12, align 16
  %22 = getelementptr i8, ptr %12, i64 %19
  %23 = getelementptr i8, ptr %22, i64 4
  call void @llvm.lifetime.end.p0(i64 8, ptr nonnull %11) #15
  call void @llvm.lifetime.start.p0(i64 8, ptr nonnull %10) #15
  %24 = icmp ult ptr %14, %23
  br i1 %24, label %ecjpake_write_len_point.exit44.thread, label %25

25:                                               ; preds = %18
  %26 = ptrtoint ptr %14 to i64
  %27 = ptrtoint ptr %23 to i64
  %28 = sub i64 %26, %27
  %29 = icmp slt i64 %28, 5
  br i1 %29, label %ecjpake_write_len_point.exit44.thread, label %30

30:                                               ; preds = %25
  %31 = getelementptr i8, ptr %22, i64 8
  %32 = ptrtoint ptr %31 to i64
  %33 = sub i64 %26, %32
  %34 = call i32 @mbedtls_ecp_point_write_binary(ptr noundef %1, ptr noundef nonnull %4, i32 noundef %2, ptr noundef nonnull %10, ptr noundef nonnull %31, i64 noundef %33) #15
  %.not.i42 = icmp eq i32 %34, 0
  br i1 %.not.i42, label %35, label %ecjpake_write_len_point.exit44.thread

ecjpake_write_len_point.exit44.thread:            ; preds = %25, %18, %30
  %.0.i43.ph = phi i32 [ %34, %30 ], [ -20224, %18 ], [ -20224, %25 ]
  call void @llvm.lifetime.end.p0(i64 8, ptr nonnull %10) #15
  br label %82

35:                                               ; preds = %30
  %36 = load i64, ptr %10, align 8, !tbaa !22
  %37 = trunc i64 %36 to i32
  %38 = call i32 @llvm.bswap.i32(i32 %37)
  store i32 %38, ptr %23, align 1
  %39 = getelementptr i8, ptr %23, i64 %36
  %40 = getelementptr i8, ptr %39, i64 4
  call void @llvm.lifetime.end.p0(i64 8, ptr nonnull %10) #15
  call void @llvm.lifetime.start.p0(i64 8, ptr nonnull %9) #15
  %41 = icmp ult ptr %14, %40
  %42 = ptrtoint ptr %40 to i64
  %43 = sub i64 %26, %42
  %44 = icmp slt i64 %43, 5
  %or.cond72 = or i1 %41, %44
  br i1 %or.cond72, label %ecjpake_write_len_point.exit47.thread, label %45

45:                                               ; preds = %35
  %46 = getelementptr i8, ptr %39, i64 8
  %47 = ptrtoint ptr %46 to i64
  %48 = sub i64 %26, %47
  %49 = call i32 @mbedtls_ecp_point_write_binary(ptr noundef %1, ptr noundef %5, i32 noundef %2, ptr noundef nonnull %9, ptr noundef nonnull %46, i64 noundef %48) #15
  %.not.i45 = icmp eq i32 %49, 0
  br i1 %.not.i45, label %50, label %ecjpake_write_len_point.exit47.thread

ecjpake_write_len_point.exit47.thread:            ; preds = %35, %45
  %.0.i46.ph = phi i32 [ %49, %45 ], [ -20224, %35 ]
  call void @llvm.lifetime.end.p0(i64 8, ptr nonnull %9) #15
  br label %82

50:                                               ; preds = %45
  %51 = load i64, ptr %9, align 8, !tbaa !22
  %52 = trunc i64 %51 to i32
  %53 = call i32 @llvm.bswap.i32(i32 %52)
  store i32 %53, ptr %40, align 1
  %54 = getelementptr i8, ptr %40, i64 %51
  %55 = getelementptr i8, ptr %54, i64 4
  call void @llvm.lifetime.end.p0(i64 8, ptr nonnull %9) #15
  %56 = ptrtoint ptr %55 to i64
  %57 = sub i64 %26, %56
  %58 = icmp slt i64 %57, 4
  br i1 %58, label %82, label %59

59:                                               ; preds = %50
  %60 = trunc i64 %15 to i32
  %61 = call i32 @llvm.bswap.i32(i32 %60)
  store i32 %61, ptr %55, align 1
  %62 = getelementptr i8, ptr %54, i64 8
  %63 = icmp ult ptr %14, %62
  %64 = ptrtoint ptr %62 to i64
  %65 = sub i64 %26, %64
  %66 = icmp ult i64 %65, %15
  %or.cond = select i1 %63, i1 true, i1 %66
  br i1 %or.cond, label %82, label %67

67:                                               ; preds = %59
  call void @llvm.memcpy.p0.p0.i64(ptr nonnull align 1 %62, ptr nonnull align 1 %6, i64 %15, i1 false)
  %68 = getelementptr inbounds nuw i8, ptr %62, i64 %15
  %69 = ptrtoint ptr %68 to i64
  %70 = ptrtoint ptr %12 to i64
  %71 = sub i64 %69, %70
  %72 = call ptr @mbedtls_md_info_from_type(i32 noundef %0) #15
  %73 = call i32 @mbedtls_md(ptr noundef %72, ptr noundef nonnull %12, i64 noundef %71, ptr noundef nonnull %13) #15
  %.not38 = icmp eq i32 %73, 0
  br i1 %.not38, label %74, label %82

74:                                               ; preds = %67
  %75 = call ptr @mbedtls_md_info_from_type(i32 noundef %0) #15
  %76 = call zeroext i8 @mbedtls_md_get_size(ptr noundef %75) #15
  %77 = zext i8 %76 to i64
  %78 = call i32 @mbedtls_mpi_read_binary(ptr noundef nonnull %7, ptr noundef nonnull %13, i64 noundef %77) #15
  %.not39 = icmp eq i32 %78, 0
  br i1 %.not39, label %79, label %82

79:                                               ; preds = %74
  %80 = getelementptr inbounds nuw i8, ptr %1, i64 104
  %81 = call i32 @mbedtls_mpi_mod_mpi(ptr noundef nonnull %7, ptr noundef nonnull %7, ptr noundef nonnull %80) #15
  br label %82

82:                                               ; preds = %ecjpake_write_len_point.exit47.thread, %ecjpake_write_len_point.exit44.thread, %ecjpake_write_len_point.exit, %67, %74, %79, %59, %50
  %.0 = phi i32 [ -20224, %50 ], [ -20224, %59 ], [ %17, %ecjpake_write_len_point.exit ], [ %73, %67 ], [ %78, %74 ], [ %81, %79 ], [ %.0.i43.ph, %ecjpake_write_len_point.exit44.thread ], [ %.0.i46.ph, %ecjpake_write_len_point.exit47.thread ]
  call void @llvm.lifetime.end.p0(i64 64, ptr nonnull %13) #15
  call void @llvm.lifetime.end.p0(i64 421, ptr nonnull %12) #15
  ret i32 %.0
}